target datalayout = "e-m:e-p270:32:32-p271:32:32-p272:64:64-i64:64-i128:128-f80:128-n8:16:32:64-S128"
target triple = "x86_64-pc-linux-gnu"

%"class.llvm::Triple" = type { %"class.std::__cxx11::basic_string", i32, i32, i32, i32, i32, i32 }
%"class.std::__cxx11::basic_string" = type { %"struct.std::__cxx11::basic_string<char>::_Alloc_hider", i64, %union.anon }
%"struct.std::__cxx11::basic_string<char>::_Alloc_hider" = type { ptr }
%union.anon = type { i64, [8 x i8] }

; Function Attrs: mustprogress nounwind uwtable
define linkonce_odr hidden noundef i32 @_ZNK4llvm6Triple14getEnvironmentEv(ptr noundef nonnull align 8 dereferenceable(56) %0) #0 comdat align 2 {
  %2 = alloca ptr, align 8
  store ptr %0, ptr %2, align 8
  %3 = load ptr, ptr %2, align 8
  %4 = getelementptr inbounds nuw %"class.llvm::Triple", ptr %3, i32 0, i32 5
  %5 = load i32, ptr %4, align 8
  ret i32 %5
}

; Function Attrs: mustprogress nounwind uwtable
define linkonce_odr hidden noundef zeroext i1 @_ZNK4llvm6Triple22isSimulatorEnvironmentEv(ptr noundef nonnull align 8 dereferenceable(56) %0) #0 comdat align 2 {
  %2 = alloca ptr, align 8
  store ptr %0, ptr %2, align 8
  %3 = load ptr, ptr %2, align 8
  %4 = call noundef i32 @_ZNK4llvm6Triple14getEnvironmentEv(ptr noundef nonnull align 8 dereferenceable(56) %3)
  %5 = icmp eq i32 %4, 23
  ret i1 %5
}

; Function Attrs: mustprogress nounwind uwtable
define linkonce_odr hidden noundef zeroext i1 @_ZNK4llvm6Triple24isMacCatalystEnvironmentEv(ptr noundef nonnull align 8 dereferenceable(56) %0) #0 comdat align 2 {
  %2 = alloca ptr, align 8
  store ptr %0, ptr %2, align 8
  %3 = load ptr, ptr %2, align 8
  %4 = call noundef i32 @_ZNK4llvm6Triple14getEnvironmentEv(ptr noundef nonnull align 8 dereferenceable(56) %3)
  %5 = icmp eq i32 %4, 24
  ret i1 %5
}

; Function Attrs: mustprogress nounwind uwtable
define linkonce_odr hidden noundef i32 @_ZNK4llvm6Triple5getOSEv(ptr noundef nonnull align 8 dereferenceable(56) %0) #0 comdat align 2 {
  %2 = alloca ptr, align 8
  store ptr %0, ptr %2, align 8
  %3 = load ptr, ptr %2, align 8
  %4 = getelementptr inbounds nuw %"class.llvm::Triple", ptr %3, i32 0, i32 4
  %5 = load i32, ptr %4, align 4
  ret i32 %5
}

; Function Attrs: mustprogress nounwind uwtable
define internal noundef i32 @_ZL32getMachoBuildVersionPlatformTypeRKN4llvm6TripleE(ptr noundef nonnull align 8 dereferenceable(56) %0) #0 {
  %2 = alloca i32, align 4
  %3 = alloca ptr, align 8
  store ptr %0, ptr %3, align 8
  %4 = load ptr, ptr %3, align 8
  %5 = call noundef i32 @_ZNK4llvm6Triple5getOSEv(ptr noundef nonnull align 8 dereferenceable(56) %4)
  switch i32 %5, label %28 [
    i32 9, label %6
    i32 1, label %6
    i32 5, label %7
    i32 26, label %15
    i32 27, label %19
    i32 29, label %23
    i32 30, label %24
  ]

6:                                                ; preds = %1, %1
  store i32 1, ptr %2, align 4
  br label %30

7:                                                ; preds = %1
  %8 = load ptr, ptr %3, align 8
  %9 = call noundef zeroext i1 @_ZNK4llvm6Triple24isMacCatalystEnvironmentEv(ptr noundef nonnull align 8 dereferenceable(56) %8)
  br i1 %9, label %10, label %11

10:                                               ; preds = %7
  store i32 6, ptr %2, align 4
  br label %30

11:                                               ; preds = %7
  %12 = load ptr, ptr %3, align 8
  %13 = call noundef zeroext i1 @_ZNK4llvm6Triple22isSimulatorEnvironmentEv(ptr noundef nonnull align 8 dereferenceable(56) %12)
  %14 = select i1 %13, i32 7, i32 2
  store i32 %14, ptr %2, align 4
  br label %30

15:                                               ; preds = %1
  %16 = load ptr, ptr %3, align 8
  %17 = call noundef zeroext i1 @_ZNK4llvm6Triple22isSimulatorEnvironmentEv(ptr noundef nonnull align 8 dereferenceable(56) %16)
  %18 = select i1 %17, i32 8, i32 3
  store i32 %18, ptr %2, align 4
  br label %30

19:                                               ; preds = %1
  %20 = load ptr, ptr %3, align 8
  %21 = call noundef zeroext i1 @_ZNK4llvm6Triple22isSimulatorEnvironmentEv(ptr noundef nonnull align 8 dereferenceable(56) %20)
  %22 = select i1 %21, i32 9, i32 4
  store i32 %22, ptr %2, align 4
  br label %30

23:                                               ; preds = %1
  store i32 10, ptr %2, align 4
  br label %30

24:                                               ; preds = %1
  %25 = load ptr, ptr %3, align 8
  %26 = call noundef zeroext i1 @_ZNK4llvm6Triple22isSimulatorEnvironmentEv(ptr noundef nonnull align 8 dereferenceable(56) %25)
  %27 = select i1 %26, i32 12, i32 11
  store i32 %27, ptr %2, align 4
  br label %30

28:                                               ; preds = %1
  br label %29

29:                                               ; preds = %28
  unreachable

30:                                               ; preds = %24, %23, %19, %15, %11, %10, %6
  %31 = load i32, ptr %2, align 4
  ret i32 %31
}