; Function Attrs: mustprogress nofree norecurse nosync nounwind willreturn memory(none) uwtable
define internal fastcc noundef range(i32 1, 13) i32 @_ZL32getMachoBuildVersionPlatformTypeRKN4llvm6TripleE(i32 %.44.val, i32 %.48.val) unnamed_addr #1 {
  switch i32 %.44.val, label %16 [
    i32 9, label %17
    i32 1, label %17
    i32 5, label %1
    i32 26, label %6
    i32 27, label %9
    i32 29, label %12
    i32 30, label %13
  ]

1:                                                ; preds = %0
  %2 = icmp eq i32 %.48.val, 24
  br i1 %2, label %17, label %3

3:                                                ; preds = %1
  %4 = icmp eq i32 %.48.val, 23
  %5 = select i1 %4, i32 7, i32 2
  br label %17

6:                                                ; preds = %0
  %7 = icmp eq i32 %.48.val, 23
  %8 = select i1 %7, i32 8, i32 3
  br label %17

9:                                                ; preds = %0
  %10 = icmp eq i32 %.48.val, 23
  %11 = select i1 %10, i32 9, i32 4
  br label %17

12:                                               ; preds = %0
  br label %17

13:                                               ; preds = %0
  %14 = icmp eq i32 %.48.val, 23
  %15 = select i1 %14, i32 12, i32 11
  br label %17

16:                                               ; preds = %0
  unreachable

17:                                               ; preds = %1, %0, %0, %13, %12, %9, %6, %3
  %.0 = phi i32 [ %15, %13 ], [ 10, %12 ], [ %11, %9 ], [ %8, %6 ], [ %5, %3 ], [ 1, %0 ], [ 1, %0 ], [ 6, %1 ]
  ret i32 %.0
}